target datalayout = "e-m:e-p270:32:32-p271:32:32-p272:64:64-i64:64-i128:128-f80:128-n8:16:32:64-S128"
target triple = "x86_64-pc-linux-gnu"

%struct.OnigMatchParamStruct = type { i32, i64, i64, ptr, ptr, ptr, i32, ptr, i32 }
%struct.OnigRegSetStruct = type { ptr, i32, i32, ptr, i32, i32, i32, i32, i32 }

@MatchStackLimit = internal global i32 0, align 4
@RetryLimitInMatch = internal global i64 10000000, align 8
@RetryLimitInSearch = internal global i64 0, align 8
@DefaultProgressCallout = internal global ptr null, align 8
@DefaultRetractionCallout = internal global ptr null, align 8

; Function Attrs: nounwind uwtable
define dso_local void @onig_free_match_param_content(ptr noundef %0) #0 {
  %2 = alloca ptr, align 8
  store ptr %0, ptr %2, align 8, !tbaa !4
  %3 = load ptr, ptr %2, align 8, !tbaa !4
  %4 = getelementptr inbounds nuw %struct.OnigMatchParamStruct, ptr %3, i32 0, i32 7
  %5 = load ptr, ptr %4, align 8, !tbaa !43
  %6 = icmp ne ptr %5, null
  br i1 %6, label %7, label %13

7:                                                ; preds = %1
  %8 = load ptr, ptr %2, align 8, !tbaa !4
  %9 = getelementptr inbounds nuw %struct.OnigMatchParamStruct, ptr %8, i32 0, i32 7
  %10 = load ptr, ptr %9, align 8, !tbaa !43
  call void @free(ptr noundef %10) #9
  %11 = load ptr, ptr %2, align 8, !tbaa !4
  %12 = getelementptr inbounds nuw %struct.OnigMatchParamStruct, ptr %11, i32 0, i32 7
  store ptr null, ptr %12, align 8, !tbaa !43
  br label %13

13:                                               ; preds = %7, %1
  ret void
}

; Function Attrs: nounwind uwtable
define dso_local i32 @onig_initialize_match_param(ptr noundef %0) #0 {
  %2 = alloca ptr, align 8
  store ptr %0, ptr %2, align 8, !tbaa !4
  %3 = load i32, ptr @MatchStackLimit, align 4, !tbaa !9
  %4 = load ptr, ptr %2, align 8, !tbaa !4
  %5 = getelementptr inbounds nuw %struct.OnigMatchParamStruct, ptr %4, i32 0, i32 0
  store i32 %3, ptr %5, align 8, !tbaa !11
  %6 = load i64, ptr @RetryLimitInMatch, align 8, !tbaa !14
  %7 = load ptr, ptr %2, align 8, !tbaa !4
  %8 = getelementptr inbounds nuw %struct.OnigMatchParamStruct, ptr %7, i32 0, i32 1
  store i64 %6, ptr %8, align 8, !tbaa !15
  %9 = load i64, ptr @RetryLimitInSearch, align 8, !tbaa !14
  %10 = load ptr, ptr %2, align 8, !tbaa !4
  %11 = getelementptr inbounds nuw %struct.OnigMatchParamStruct, ptr %10, i32 0, i32 2
  store i64 %9, ptr %11, align 8, !tbaa !16
  %12 = load ptr, ptr %2, align 8, !tbaa !4
  %13 = getelementptr inbounds nuw %struct.OnigMatchParamStruct, ptr %12, i32 0, i32 3
  store ptr null, ptr %13, align 8, !tbaa !20
  %14 = load ptr, ptr @DefaultProgressCallout, align 8, !tbaa !17
  %15 = load ptr, ptr %2, align 8, !tbaa !4
  %16 = getelementptr inbounds nuw %struct.OnigMatchParamStruct, ptr %15, i32 0, i32 4
  store ptr %14, ptr %16, align 8, !tbaa !18
  %17 = load ptr, ptr @DefaultRetractionCallout, align 8, !tbaa !17
  %18 = load ptr, ptr %2, align 8, !tbaa !4
  %19 = getelementptr inbounds nuw %struct.OnigMatchParamStruct, ptr %18, i32 0, i32 5
  store ptr %17, ptr %19, align 8, !tbaa !19
  %20 = load ptr, ptr %2, align 8, !tbaa !4
  %21 = getelementptr inbounds nuw %struct.OnigMatchParamStruct, ptr %20, i32 0, i32 6
  store i32 0, ptr %21, align 8, !tbaa !42
  %22 = load ptr, ptr %2, align 8, !tbaa !4
  %23 = getelementptr inbounds nuw %struct.OnigMatchParamStruct, ptr %22, i32 0, i32 7
  store ptr null, ptr %23, align 8, !tbaa !43
  %24 = load ptr, ptr %2, align 8, !tbaa !4
  %25 = getelementptr inbounds nuw %struct.OnigMatchParamStruct, ptr %24, i32 0, i32 8
  store i32 0, ptr %25, align 8, !tbaa !44
  ret i32 0
}

; Function Attrs: nounwind uwtable
define dso_local i32 @onig_regset_search(ptr noundef %0, ptr noundef %1, ptr noundef %2, ptr noundef %3, ptr noundef %4, i32 noundef %5, i32 noundef %6, ptr noundef %7) #0 {
  %9 = alloca i32, align 4
  %10 = alloca ptr, align 8
  %11 = alloca ptr, align 8
  %12 = alloca ptr, align 8
  %13 = alloca ptr, align 8
  %14 = alloca ptr, align 8
  %15 = alloca i32, align 4
  %16 = alloca i32, align 4
  %17 = alloca ptr, align 8
  %18 = alloca i32, align 4
  %19 = alloca i32, align 4
  %20 = alloca ptr, align 8
  %21 = alloca ptr, align 8
  %22 = alloca i32, align 4
  store ptr %0, ptr %10, align 8, !tbaa !62
  store ptr %1, ptr %11, align 8, !tbaa !60
  store ptr %2, ptr %12, align 8, !tbaa !60
  store ptr %3, ptr %13, align 8, !tbaa !60
  store ptr %4, ptr %14, align 8, !tbaa !60
  store i32 %5, ptr %15, align 4, !tbaa !9
  store i32 %6, ptr %16, align 4, !tbaa !9
  store ptr %7, ptr %17, align 8, !tbaa !66
  call void @llvm.lifetime.start.p0(i64 4, ptr %18) #9
  call void @llvm.lifetime.start.p0(i64 4, ptr %19) #9
  call void @llvm.lifetime.start.p0(i64 8, ptr %20) #9
  call void @llvm.lifetime.start.p0(i64 8, ptr %21) #9
  %23 = load ptr, ptr %10, align 8, !tbaa !62
  %24 = getelementptr inbounds nuw %struct.OnigRegSetStruct, ptr %23, i32 0, i32 1
  %25 = load i32, ptr %24, align 8, !tbaa !67
  %26 = sext i32 %25 to i64
  %27 = mul i64 80, %26
  %28 = call noalias ptr @malloc(i64 noundef %27) #10
  store ptr %28, ptr %21, align 8, !tbaa !64
  %29 = load ptr, ptr %21, align 8, !tbaa !64
  %30 = icmp eq ptr %29, null
  br i1 %30, label %31, label %32

31:                                               ; preds = %8
  store i32 -5, ptr %9, align 4
  store i32 1, ptr %22, align 4
  br label %90

32:                                               ; preds = %8
  %33 = load ptr, ptr %21, align 8, !tbaa !64
  %34 = load ptr, ptr %10, align 8, !tbaa !62
  %35 = getelementptr inbounds nuw %struct.OnigRegSetStruct, ptr %34, i32 0, i32 1
  %36 = load i32, ptr %35, align 8, !tbaa !67
  %37 = sext i32 %36 to i64
  %38 = getelementptr inbounds ptr, ptr %33, i64 %37
  store ptr %38, ptr %20, align 8, !tbaa !4
  store i32 0, ptr %19, align 4, !tbaa !9
  br label %39

39:                                               ; preds = %59, %32
  %40 = load i32, ptr %19, align 4, !tbaa !9
  %41 = load ptr, ptr %10, align 8, !tbaa !62
  %42 = getelementptr inbounds nuw %struct.OnigRegSetStruct, ptr %41, i32 0, i32 1
  %43 = load i32, ptr %42, align 8, !tbaa !67
  %44 = icmp slt i32 %40, %43
  br i1 %44, label %45, label %62

45:                                               ; preds = %39
  %46 = load ptr, ptr %20, align 8, !tbaa !4
  %47 = load i32, ptr %19, align 4, !tbaa !9
  %48 = sext i32 %47 to i64
  %49 = getelementptr inbounds %struct.OnigMatchParamStruct, ptr %46, i64 %48
  %50 = call i32 @onig_initialize_match_param(ptr noundef %49)
  %51 = load ptr, ptr %20, align 8, !tbaa !4
  %52 = load i32, ptr %19, align 4, !tbaa !9
  %53 = sext i32 %52 to i64
  %54 = getelementptr inbounds %struct.OnigMatchParamStruct, ptr %51, i64 %53
  %55 = load ptr, ptr %21, align 8, !tbaa !64
  %56 = load i32, ptr %19, align 4, !tbaa !9
  %57 = sext i32 %56 to i64
  %58 = getelementptr inbounds ptr, ptr %55, i64 %57
  store ptr %54, ptr %58, align 8, !tbaa !4
  br label %59

59:                                               ; preds = %45
  %60 = load i32, ptr %19, align 4, !tbaa !9
  %61 = add nsw i32 %60, 1
  store i32 %61, ptr %19, align 4, !tbaa !9
  br label %39, !llvm.loop !188

62:                                               ; preds = %39
  %63 = load ptr, ptr %10, align 8, !tbaa !62
  %64 = load ptr, ptr %11, align 8, !tbaa !60
  %65 = load ptr, ptr %12, align 8, !tbaa !60
  %66 = load ptr, ptr %13, align 8, !tbaa !60
  %67 = load ptr, ptr %14, align 8, !tbaa !60
  %68 = load i32, ptr %15, align 4, !tbaa !9
  %69 = load i32, ptr %16, align 4, !tbaa !9
  %70 = load ptr, ptr %21, align 8, !tbaa !64
  %71 = load ptr, ptr %17, align 8, !tbaa !66
  %72 = call i32 @onig_regset_search_with_param(ptr noundef %63, ptr noundef %64, ptr noundef %65, ptr noundef %66, ptr noundef %67, i32 noundef %68, i32 noundef %69, ptr noundef %70, ptr noundef %71)
  store i32 %72, ptr %18, align 4, !tbaa !9
  store i32 0, ptr %19, align 4, !tbaa !9
  br label %73

73:                                               ; preds = %84, %62
  %74 = load i32, ptr %19, align 4, !tbaa !9
  %75 = load ptr, ptr %10, align 8, !tbaa !62
  %76 = getelementptr inbounds nuw %struct.OnigRegSetStruct, ptr %75, i32 0, i32 1
  %77 = load i32, ptr %76, align 8, !tbaa !67
  %78 = icmp slt i32 %74, %77
  br i1 %78, label %79, label %87

79:                                               ; preds = %73
  %80 = load ptr, ptr %20, align 8, !tbaa !4
  %81 = load i32, ptr %19, align 4, !tbaa !9
  %82 = sext i32 %81 to i64
  %83 = getelementptr inbounds %struct.OnigMatchParamStruct, ptr %80, i64 %82
  call void @onig_free_match_param_content(ptr noundef %83)
  br label %84

84:                                               ; preds = %79
  %85 = load i32, ptr %19, align 4, !tbaa !9
  %86 = add nsw i32 %85, 1
  store i32 %86, ptr %19, align 4, !tbaa !9
  br label %73, !llvm.loop !189

87:                                               ; preds = %73
  %88 = load ptr, ptr %21, align 8, !tbaa !64
  call void @free(ptr noundef %88) #9
  %89 = load i32, ptr %18, align 4, !tbaa !9
  store i32 %89, ptr %9, align 4
  store i32 1, ptr %22, align 4
  br label %90

90:                                               ; preds = %87, %31
  call void @llvm.lifetime.end.p0(i64 8, ptr %21) #9
  call void @llvm.lifetime.end.p0(i64 8, ptr %20) #9
  call void @llvm.lifetime.end.p0(i64 4, ptr %19) #9
  call void @llvm.lifetime.end.p0(i64 4, ptr %18) #9
  %91 = load i32, ptr %9, align 4
  ret i32 %91
}